; ModuleID = '45/2599.c'
source_filename = "45/2599.c"
target datalayout = "e-m:e-p270:32:32-p271:32:32-p272:64:64-i64:64-f80:128-n8:16:32:64-S128"
target triple = "x86_64-pc-linux-gnu"

@.str = private unnamed_addr constant [6 x i8] c"%s %s\00", align 1
@.str.1 = private unnamed_addr constant [3 x i8] c"%d\00", align 1

; Function Attrs: noinline nounwind uwtable
define dso_local i32 @main(i32 %0, i8** %1) #0 {
  %3 = alloca i32, align 4
  %4 = alloca i32, align 4
  %5 = alloca i8**, align 8
  %6 = alloca [100 x i8], align 16
  %7 = alloca [100 x i8], align 16
  %8 = alloca [100 x i8], align 16
  %9 = alloca i32, align 4
  %10 = alloca i32, align 4
  %11 = alloca i32, align 4
  %12 = alloca i32, align 4
  %13 = alloca i32, align 4
  %14 = alloca i32, align 4
  store i32 0, i32* %3, align 4
  store i32 %0, i32* %4, align 4
  store i8** %1, i8*** %5, align 8
  store i32 0, i32* %14, align 4
  %15 = getelementptr inbounds [100 x i8], [100 x i8]* %6, i64 0, i64 0
  %16 = getelementptr inbounds [100 x i8], [100 x i8]* %7, i64 0, i64 0
  %17 = call i32 (i8*, ...) @__isoc99_scanf(i8* getelementptr inbounds ([6 x i8], [6 x i8]* @.str, i64 0, i64 0), i8* %15, i8* %16)
  %18 = getelementptr inbounds [100 x i8], [100 x i8]* %7, i64 0, i64 0
  %19 = call i64 @strlen(i8* %18) #3
  %20 = trunc i64 %19 to i32
  store i32 %20, i32* %9, align 4
  %21 = getelementptr inbounds [100 x i8], [100 x i8]* %6, i64 0, i64 0
  %22 = call i64 @strlen(i8* %21) #3
  %23 = trunc i64 %22 to i32
  store i32 %23, i32* %13, align 4
  store i32 0, i32* %10, align 4
  br label %24

24:                                               ; preds = %76, %2
  %25 = load i32, i32* %10, align 4
  %26 = load i32, i32* %9, align 4
  %27 = icmp slt i32 %25, %26
  br i1 %27, label %28, label %79

28:                                               ; preds = %24
  store i32 0, i32* %12, align 4
  store i32 0, i32* %14, align 4
  %29 = load i32, i32* %14, align 4
  %30 = sext i32 %29 to i64
  %31 = getelementptr inbounds [100 x i8], [100 x i8]* %8, i64 0, i64 %30
  store i8 0, i8* %31, align 1
  %32 = load i32, i32* %10, align 4
  %33 = sext i32 %32 to i64
  %34 = getelementptr inbounds [100 x i8], [100 x i8]* %7, i64 0, i64 %33
  %35 = load i8, i8* %34, align 1
  %36 = sext i8 %35 to i32
  %37 = getelementptr inbounds [100 x i8], [100 x i8]* %6, i64 0, i64 0
  %38 = load i8, i8* %37, align 16
  %39 = sext i8 %38 to i32
  %40 = icmp eq i32 %36, %39
  br i1 %40, label %41, label %75

41:                                               ; preds = %28
  %42 = load i32, i32* %10, align 4
  store i32 %42, i32* %12, align 4
  %43 = load i32, i32* %10, align 4
  store i32 %43, i32* %11, align 4
  br label %44

44:                                               ; preds = %60, %41
  %45 = load i32, i32* %11, align 4
  %46 = load i32, i32* %10, align 4
  %47 = load i32, i32* %13, align 4
  %48 = add nsw i32 %46, %47
  %49 = icmp slt i32 %45, %48
  br i1 %49, label %50, label %63

50:                                               ; preds = %44
  %51 = load i32, i32* %11, align 4
  %52 = sext i32 %51 to i64
  %53 = getelementptr inbounds [100 x i8], [100 x i8]* %7, i64 0, i64 %52
  %54 = load i8, i8* %53, align 1
  %55 = load i32, i32* %14, align 4
  %56 = sext i32 %55 to i64
  %57 = getelementptr inbounds [100 x i8], [100 x i8]* %8, i64 0, i64 %56
  store i8 %54, i8* %57, align 1
  %58 = load i32, i32* %14, align 4
  %59 = add nsw i32 %58, 1
  store i32 %59, i32* %14, align 4
  br label %60

60:                                               ; preds = %50
  %61 = load i32, i32* %11, align 4
  %62 = add nsw i32 %61, 1
  store i32 %62, i32* %11, align 4
  br label %44

63:                                               ; preds = %44
  %64 = load i32, i32* %14, align 4
  %65 = sext i32 %64 to i64
  %66 = getelementptr inbounds [100 x i8], [100 x i8]* %8, i64 0, i64 %65
  store i8 0, i8* %66, align 1
  %67 = getelementptr inbounds [100 x i8], [100 x i8]* %8, i64 0, i64 0
  %68 = getelementptr inbounds [100 x i8], [100 x i8]* %6, i64 0, i64 0
  %69 = call i32 @strcmp(i8* %67, i8* %68) #3
  %70 = icmp eq i32 %69, 0
  br i1 %70, label %71, label %74

71:                                               ; preds = %63
  %72 = load i32, i32* %12, align 4
  %73 = call i32 (i8*, ...) @printf(i8* getelementptr inbounds ([3 x i8], [3 x i8]* @.str.1, i64 0, i64 0), i32 %72)
  br label %79

74:                                               ; preds = %63
  br label %75

75:                                               ; preds = %74, %28
  br label %76

76:                                               ; preds = %75
  %77 = load i32, i32* %10, align 4
  %78 = add nsw i32 %77, 1
  store i32 %78, i32* %10, align 4
  br label %24

79:                                               ; preds = %71, %24
  ret i32 0
}

declare dso_local i32 @__isoc99_scanf(i8*, ...) #1

; Function Attrs: nounwind readonly
declare dso_local i64 @strlen(i8*) #2

; Function Attrs: nounwind readonly
declare dso_local i32 @strcmp(i8*, i8*) #2

declare dso_local i32 @printf(i8*, ...) #1


!llvm.module.flags = !{!0}
!llvm.ident = !{!1}

!0 = !{i32 1, !"wchar_size", i32 4}
!1 = !{!"clang version 10.0.0-4ubuntu1 "}
